; Function Attrs: nounwind uwtable
define noalias noundef ptr @Amap_ManStart(i32 noundef %0) local_unnamed_addr #0 {
  %calloc = tail call dereferenceable_or_null(216) ptr @calloc(i64 1, i64 216)
  %2 = getelementptr inbounds nuw i8, ptr %calloc, i64 16
  store float 0x3F847AE140000000, ptr %2, align 8, !tbaa !3
  %3 = tail call noalias dereferenceable_or_null(16) ptr @malloc(i64 noundef 16) #5
  %4 = getelementptr inbounds nuw i8, ptr %3, i64 4
  store i32 0, ptr %4, align 4, !tbaa !20
  store i32 100, ptr %3, align 8, !tbaa !22
  %5 = tail call noalias dereferenceable_or_null(800) ptr @malloc(i64 noundef 800) #5
  %6 = getelementptr inbounds nuw i8, ptr %3, i64 8
  store ptr %5, ptr %6, align 8, !tbaa !23
  %7 = getelementptr inbounds nuw i8, ptr %calloc, i64 32
  store ptr %3, ptr %7, align 8, !tbaa !24
  %8 = tail call noalias dereferenceable_or_null(16) ptr @malloc(i64 noundef 16) #5
  %9 = getelementptr inbounds nuw i8, ptr %8, i64 4
  store i32 0, ptr %9, align 4, !tbaa !20
  store i32 100, ptr %8, align 8, !tbaa !22
  %10 = tail call noalias dereferenceable_or_null(800) ptr @malloc(i64 noundef 800) #5
  %11 = getelementptr inbounds nuw i8, ptr %8, i64 8
  store ptr %10, ptr %11, align 8, !tbaa !23
  %12 = getelementptr inbounds nuw i8, ptr %calloc, i64 40
  store ptr %8, ptr %12, align 8, !tbaa !25
  %13 = tail call noalias dereferenceable_or_null(16) ptr @malloc(i64 noundef 16) #5
  %14 = getelementptr inbounds nuw i8, ptr %13, i64 4
  store i32 0, ptr %14, align 4, !tbaa !20
  store i32 100, ptr %13, align 8, !tbaa !22
  %15 = tail call noalias dereferenceable_or_null(800) ptr @malloc(i64 noundef 800) #5
  %16 = getelementptr inbounds nuw i8, ptr %13, i64 8
  store ptr %15, ptr %16, align 8, !tbaa !23
  %17 = getelementptr inbounds nuw i8, ptr %calloc, i64 48
  store ptr %13, ptr %17, align 8, !tbaa !26
  %18 = tail call noalias dereferenceable_or_null(16) ptr @malloc(i64 noundef 16) #5
  %19 = getelementptr inbounds nuw i8, ptr %18, i64 4
  store i32 0, ptr %19, align 4, !tbaa !27
  store i32 100, ptr %18, align 8, !tbaa !29
  %20 = tail call noalias dereferenceable_or_null(400) ptr @malloc(i64 noundef 400) #5
  %21 = getelementptr inbounds nuw i8, ptr %18, i64 8
  store ptr %20, ptr %21, align 8, !tbaa !30
  %22 = getelementptr inbounds nuw i8, ptr %calloc, i64 136
  store ptr %18, ptr %22, align 8, !tbaa !31
  %23 = tail call noalias dereferenceable_or_null(16) ptr @malloc(i64 noundef 16) #5
  %24 = getelementptr inbounds nuw i8, ptr %23, i64 4
  store i32 0, ptr %24, align 4, !tbaa !20
  store i32 100, ptr %23, align 8, !tbaa !22
  %25 = tail call noalias dereferenceable_or_null(800) ptr @malloc(i64 noundef 800) #5
  %26 = getelementptr inbounds nuw i8, ptr %23, i64 8
  store ptr %25, ptr %26, align 8, !tbaa !23
  %27 = getelementptr inbounds nuw i8, ptr %calloc, i64 168
  store ptr %23, ptr %27, align 8, !tbaa !32
  %28 = tail call noalias dereferenceable_or_null(16) ptr @malloc(i64 noundef 16) #5
  %29 = getelementptr inbounds nuw i8, ptr %28, i64 4
  store i32 0, ptr %29, align 4, !tbaa !20
  store i32 100, ptr %28, align 8, !tbaa !22
  %30 = tail call noalias dereferenceable_or_null(800) ptr @malloc(i64 noundef 800) #5
  %31 = getelementptr inbounds nuw i8, ptr %28, i64 8
  store ptr %30, ptr %31, align 8, !tbaa !23
  %32 = getelementptr inbounds nuw i8, ptr %calloc, i64 176
  store ptr %28, ptr %32, align 8, !tbaa !33
  %33 = tail call noalias dereferenceable_or_null(16) ptr @malloc(i64 noundef 16) #5
  %34 = getelementptr inbounds nuw i8, ptr %33, i64 4
  store i32 0, ptr %34, align 4, !tbaa !20
  store i32 100, ptr %33, align 8, !tbaa !22
  %35 = tail call noalias dereferenceable_or_null(800) ptr @malloc(i64 noundef 800) #5
  %36 = getelementptr inbounds nuw i8, ptr %33, i64 8
  store ptr %35, ptr %36, align 8, !tbaa !23
  %37 = getelementptr inbounds nuw i8, ptr %calloc, i64 184
  store ptr %33, ptr %37, align 8, !tbaa !34
  %38 = tail call noalias dereferenceable_or_null(16) ptr @malloc(i64 noundef 16) #5
  %39 = getelementptr inbounds nuw i8, ptr %38, i64 4
  store i32 0, ptr %39, align 4, !tbaa !20
  store i32 100, ptr %38, align 8, !tbaa !22
  %40 = tail call noalias dereferenceable_or_null(800) ptr @malloc(i64 noundef 800) #5
  %41 = getelementptr inbounds nuw i8, ptr %38, i64 8
  store ptr %40, ptr %41, align 8, !tbaa !23
  %42 = getelementptr inbounds nuw i8, ptr %calloc, i64 192
  store ptr %38, ptr %42, align 8, !tbaa !35
  %43 = tail call ptr @Aig_MmFixedStart(i32 noundef 96, i32 noundef %0) #6
  %44 = getelementptr inbounds nuw i8, ptr %calloc, i64 56
  store ptr %43, ptr %44, align 8, !tbaa !36
  %45 = tail call ptr (...) @Aig_MmFlexStart() #6
  %46 = getelementptr inbounds nuw i8, ptr %calloc, i64 64
  store ptr %45, ptr %46, align 8, !tbaa !37
  %47 = tail call ptr (...) @Aig_MmFlexStart() #6
  %48 = getelementptr inbounds nuw i8, ptr %calloc, i64 72
  store ptr %47, ptr %48, align 8, !tbaa !38
  %49 = tail call ptr (...) @Aig_MmFlexStart() #6
  %50 = getelementptr inbounds nuw i8, ptr %calloc, i64 80
  store ptr %49, ptr %50, align 8, !tbaa !39
  ret ptr %calloc
}